; Function Attrs: mustprogress uwtable
define noundef i32 @_ZN14colvarproxy_io20flush_output_streamsEv(ptr noundef nonnull align 8 dereferenceable(224) %0) unnamed_addr #2 align 2 {
  %2 = load ptr, ptr %0, align 8, !tbaa !27
  %3 = getelementptr inbounds nuw i8, ptr %2, i64 16
  %4 = load ptr, ptr %3, align 8
  %5 = tail call noundef zeroext i1 %4(ptr noundef nonnull align 8 dereferenceable(224) %0)
  br i1 %5, label %6, label %.loopexit

6:                                                ; preds = %1
  %7 = getelementptr inbounds nuw i8, ptr %0, i64 192
  %8 = load ptr, ptr %7, align 8, !tbaa !91
  %9 = getelementptr inbounds nuw i8, ptr %0, i64 176
  %.not3 = icmp eq ptr %8, %9
  br i1 %.not3, label %.loopexit, label %.lr.ph

.lr.ph:                                           ; preds = %6, %.lr.ph
  %.sroa.01.04 = phi ptr [ %14, %.lr.ph ], [ %8, %6 ]
  %10 = getelementptr inbounds nuw i8, ptr %.sroa.01.04, i64 64
  %11 = load ptr, ptr %10, align 8, !tbaa !92, !nonnull !90, !noundef !90
  %12 = tail call ptr @__dynamic_cast(ptr nonnull %11, ptr nonnull @_ZTISo, ptr nonnull @_ZTISt14basic_ofstreamIcSt11char_traitsIcEE, i64 0) #22
  %13 = tail call noundef nonnull align 8 dereferenceable(8) ptr @_ZNSo5flushEv(ptr noundef nonnull align 8 dereferenceable(8) %12)
  %14 = tail call noundef ptr @_ZSt18_Rb_tree_incrementPSt18_Rb_tree_node_base(ptr noundef %.sroa.01.04) #27
  %.not = icmp eq ptr %14, %9
  br i1 %.not, label %.loopexit, label %.lr.ph, !llvm.loop !94

.loopexit:                                        ; preds = %.lr.ph, %6, %1
  ret i32 0
}